target datalayout = "e-m:e-p270:32:32-p271:32:32-p272:64:64-i64:64-i128:128-f80:128-n8:16:32:64-S128"
target triple = "x86_64-pc-linux-gnu"

%struct.Token = type { i32, ptr, i32, i32, i32, i32, i32, ptr, ptr }

@_Py_ctype_table = external constant [256 x i32], align 16
@.str = private unnamed_addr constant [34 x i8] c"../cpython/Parser/string_parser.c\00", align 1
@PyExc_OverflowError = external global ptr, align 8
@.str.1 = private unnamed_addr constant [28 x i8] c"string to parse is too long\00", align 1
@PyExc_SyntaxError = external global ptr, align 8
@.str.2 = private unnamed_addr constant [48 x i8] c"bytes can only contain ASCII literal characters\00", align 1

; Function Attrs: nounwind uwtable
define hidden ptr @_PyPegen_parse_string(ptr noundef %0, ptr noundef %1) #0 {
  %3 = alloca ptr, align 8
  %4 = alloca ptr, align 8
  %5 = alloca ptr, align 8
  %6 = alloca ptr, align 8
  %7 = alloca i32, align 4
  %8 = alloca i64, align 8
  %9 = alloca i32, align 4
  %10 = alloca i32, align 4
  %11 = alloca i32, align 4
  %12 = alloca ptr, align 8
  store ptr %0, ptr %4, align 8, !tbaa !4
  store ptr %1, ptr %5, align 8, !tbaa !4
  call void @llvm.lifetime.start.p0(i64 8, ptr %6) #8
  %13 = load ptr, ptr %5, align 8, !tbaa !4
  %14 = getelementptr inbounds nuw %struct.Token, ptr %13, i32 0, i32 1
  %15 = load ptr, ptr %14, align 8, !tbaa !20
  %16 = call ptr @PyBytes_AsString(ptr noundef %15)
  store ptr %16, ptr %6, align 8, !tbaa !10
  %17 = load ptr, ptr %6, align 8, !tbaa !10
  %18 = icmp eq ptr %17, null
  br i1 %18, label %19, label %20

19:                                               ; preds = %2
  store ptr null, ptr %3, align 8
  store i32 1, ptr %7, align 4
  br label %222

20:                                               ; preds = %2
  call void @llvm.lifetime.start.p0(i64 8, ptr %8) #8
  call void @llvm.lifetime.start.p0(i64 4, ptr %9) #8
  %21 = load ptr, ptr %6, align 8, !tbaa !10
  %22 = load i8, ptr %21, align 1, !tbaa !16
  %23 = sext i8 %22 to i32
  %24 = and i32 %23, 255
  %25 = trunc i32 %24 to i8
  %26 = zext i8 %25 to i32
  store i32 %26, ptr %9, align 4, !tbaa !8
  call void @llvm.lifetime.start.p0(i64 4, ptr %10) #8
  store i32 0, ptr %10, align 4, !tbaa !8
  call void @llvm.lifetime.start.p0(i64 4, ptr %11) #8
  store i32 0, ptr %11, align 4, !tbaa !8
  %27 = load i32, ptr %9, align 4, !tbaa !8
  %28 = and i32 %27, 255
  %29 = trunc i32 %28 to i8
  %30 = zext i8 %29 to i64
  %31 = getelementptr [256 x i32], ptr @_Py_ctype_table, i64 0, i64 %30
  %32 = load i32, ptr %31, align 4, !tbaa !8
  %33 = and i32 %32, 3
  %34 = icmp ne i32 %33, 0
  br i1 %34, label %35, label %83

35:                                               ; preds = %20
  br label %36

36:                                               ; preds = %81, %35
  %37 = load i32, ptr %10, align 4, !tbaa !8
  %38 = icmp ne i32 %37, 0
  br i1 %38, label %39, label %43

39:                                               ; preds = %36
  %40 = load i32, ptr %11, align 4, !tbaa !8
  %41 = icmp ne i32 %40, 0
  %42 = xor i1 %41, true
  br label %43

43:                                               ; preds = %39, %36
  %44 = phi i1 [ true, %36 ], [ %42, %39 ]
  br i1 %44, label %45, label %82

45:                                               ; preds = %43
  %46 = load i32, ptr %9, align 4, !tbaa !8
  %47 = icmp eq i32 %46, 98
  br i1 %47, label %51, label %48

48:                                               ; preds = %45
  %49 = load i32, ptr %9, align 4, !tbaa !8
  %50 = icmp eq i32 %49, 66
  br i1 %50, label %51, label %56

51:                                               ; preds = %48, %45
  %52 = load ptr, ptr %6, align 8, !tbaa !10
  %53 = getelementptr i8, ptr %52, i32 1
  store ptr %53, ptr %6, align 8, !tbaa !10
  %54 = load i8, ptr %53, align 1, !tbaa !16
  %55 = zext i8 %54 to i32
  store i32 %55, ptr %9, align 4, !tbaa !8
  store i32 1, ptr %10, align 4, !tbaa !8
  br label %81

56:                                               ; preds = %48
  %57 = load i32, ptr %9, align 4, !tbaa !8
  %58 = icmp eq i32 %57, 117
  br i1 %58, label %62, label %59

59:                                               ; preds = %56
  %60 = load i32, ptr %9, align 4, !tbaa !8
  %61 = icmp eq i32 %60, 85
  br i1 %61, label %62, label %67

62:                                               ; preds = %59, %56
  %63 = load ptr, ptr %6, align 8, !tbaa !10
  %64 = getelementptr i8, ptr %63, i32 1
  store ptr %64, ptr %6, align 8, !tbaa !10
  %65 = load i8, ptr %64, align 1, !tbaa !16
  %66 = zext i8 %65 to i32
  store i32 %66, ptr %9, align 4, !tbaa !8
  br label %80

67:                                               ; preds = %59
  %68 = load i32, ptr %9, align 4, !tbaa !8
  %69 = icmp eq i32 %68, 114
  br i1 %69, label %73, label %70

70:                                               ; preds = %67
  %71 = load i32, ptr %9, align 4, !tbaa !8
  %72 = icmp eq i32 %71, 82
  br i1 %72, label %73, label %78

73:                                               ; preds = %70, %67
  %74 = load ptr, ptr %6, align 8, !tbaa !10
  %75 = getelementptr i8, ptr %74, i32 1
  store ptr %75, ptr %6, align 8, !tbaa !10
  %76 = load i8, ptr %75, align 1, !tbaa !16
  %77 = zext i8 %76 to i32
  store i32 %77, ptr %9, align 4, !tbaa !8
  store i32 1, ptr %11, align 4, !tbaa !8
  br label %79

78:                                               ; preds = %70
  br label %82

79:                                               ; preds = %73
  br label %80

80:                                               ; preds = %79, %62
  br label %81

81:                                               ; preds = %80, %51
  br label %36, !llvm.loop !23

82:                                               ; preds = %78, %43
  br label %83

83:                                               ; preds = %82, %20
  %84 = load i32, ptr %9, align 4, !tbaa !8
  %85 = icmp ne i32 %84, 39
  br i1 %85, label %86, label %90

86:                                               ; preds = %83
  %87 = load i32, ptr %9, align 4, !tbaa !8
  %88 = icmp ne i32 %87, 34
  br i1 %88, label %89, label %90

89:                                               ; preds = %86
  call void @_PyErr_BadInternalCall(ptr noundef @.str, i32 noundef 241)
  store ptr null, ptr %3, align 8
  store i32 1, ptr %7, align 4
  br label %221

90:                                               ; preds = %86, %83
  %91 = load ptr, ptr %6, align 8, !tbaa !10
  %92 = getelementptr i8, ptr %91, i32 1
  store ptr %92, ptr %6, align 8, !tbaa !10
  %93 = load ptr, ptr %6, align 8, !tbaa !10
  %94 = call i64 @strlen(ptr noundef %93) #9
  store i64 %94, ptr %8, align 8, !tbaa !12
  %95 = load i64, ptr %8, align 8, !tbaa !12
  %96 = icmp ugt i64 %95, 2147483647
  br i1 %96, label %97, label %99

97:                                               ; preds = %90
  %98 = load ptr, ptr @PyExc_OverflowError, align 8, !tbaa !14
  call void @PyErr_SetString(ptr noundef %98, ptr noundef @.str.1)
  store ptr null, ptr %3, align 8
  store i32 1, ptr %7, align 4
  br label %221

99:                                               ; preds = %90
  %100 = load ptr, ptr %6, align 8, !tbaa !10
  %101 = load i64, ptr %8, align 8, !tbaa !12
  %102 = add i64 %101, -1
  store i64 %102, ptr %8, align 8, !tbaa !12
  %103 = getelementptr i8, ptr %100, i64 %102
  %104 = load i8, ptr %103, align 1, !tbaa !16
  %105 = sext i8 %104 to i32
  %106 = load i32, ptr %9, align 4, !tbaa !8
  %107 = icmp ne i32 %105, %106
  br i1 %107, label %108, label %109

108:                                              ; preds = %99
  call void @_PyErr_BadInternalCall(ptr noundef @.str, i32 noundef 258)
  store ptr null, ptr %3, align 8
  store i32 1, ptr %7, align 4
  br label %221

109:                                              ; preds = %99
  %110 = load i64, ptr %8, align 8, !tbaa !12
  %111 = icmp uge i64 %110, 4
  br i1 %111, label %112, label %150

112:                                              ; preds = %109
  %113 = load ptr, ptr %6, align 8, !tbaa !10
  %114 = getelementptr i8, ptr %113, i64 0
  %115 = load i8, ptr %114, align 1, !tbaa !16
  %116 = sext i8 %115 to i32
  %117 = load i32, ptr %9, align 4, !tbaa !8
  %118 = icmp eq i32 %116, %117
  br i1 %118, label %119, label %150

119:                                              ; preds = %112
  %120 = load ptr, ptr %6, align 8, !tbaa !10
  %121 = getelementptr i8, ptr %120, i64 1
  %122 = load i8, ptr %121, align 1, !tbaa !16
  %123 = sext i8 %122 to i32
  %124 = load i32, ptr %9, align 4, !tbaa !8
  %125 = icmp eq i32 %123, %124
  br i1 %125, label %126, label %150

126:                                              ; preds = %119
  %127 = load ptr, ptr %6, align 8, !tbaa !10
  %128 = getelementptr i8, ptr %127, i64 2
  store ptr %128, ptr %6, align 8, !tbaa !10
  %129 = load i64, ptr %8, align 8, !tbaa !12
  %130 = sub i64 %129, 2
  store i64 %130, ptr %8, align 8, !tbaa !12
  %131 = load ptr, ptr %6, align 8, !tbaa !10
  %132 = load i64, ptr %8, align 8, !tbaa !12
  %133 = add i64 %132, -1
  store i64 %133, ptr %8, align 8, !tbaa !12
  %134 = getelementptr i8, ptr %131, i64 %133
  %135 = load i8, ptr %134, align 1, !tbaa !16
  %136 = sext i8 %135 to i32
  %137 = load i32, ptr %9, align 4, !tbaa !8
  %138 = icmp ne i32 %136, %137
  br i1 %138, label %148, label %139

139:                                              ; preds = %126
  %140 = load ptr, ptr %6, align 8, !tbaa !10
  %141 = load i64, ptr %8, align 8, !tbaa !12
  %142 = add i64 %141, -1
  store i64 %142, ptr %8, align 8, !tbaa !12
  %143 = getelementptr i8, ptr %140, i64 %142
  %144 = load i8, ptr %143, align 1, !tbaa !16
  %145 = sext i8 %144 to i32
  %146 = load i32, ptr %9, align 4, !tbaa !8
  %147 = icmp ne i32 %145, %146
  br i1 %147, label %148, label %149

148:                                              ; preds = %139, %126
  call void @_PyErr_BadInternalCall(ptr noundef @.str, i32 noundef 269)
  store ptr null, ptr %3, align 8
  store i32 1, ptr %7, align 4
  br label %221

149:                                              ; preds = %139
  br label %150

150:                                              ; preds = %149, %119, %112, %109
  %151 = load i32, ptr %11, align 4, !tbaa !8
  %152 = icmp ne i32 %151, 0
  br i1 %152, label %157, label %153

153:                                              ; preds = %150
  %154 = load ptr, ptr %6, align 8, !tbaa !10
  %155 = call ptr @strchr(ptr noundef %154, i32 noundef 92) #9
  %156 = icmp eq ptr %155, null
  br label %157

157:                                              ; preds = %153, %150
  %158 = phi i1 [ true, %150 ], [ %156, %153 ]
  %159 = zext i1 %158 to i32
  store i32 %159, ptr %11, align 4, !tbaa !8
  %160 = load i32, ptr %10, align 4, !tbaa !8
  %161 = icmp ne i32 %160, 0
  br i1 %161, label %162, label %214

162:                                              ; preds = %157
  call void @llvm.lifetime.start.p0(i64 8, ptr %12) #8
  %163 = load ptr, ptr %6, align 8, !tbaa !10
  store ptr %163, ptr %12, align 8, !tbaa !10
  br label %164

164:                                              ; preds = %197, %162
  %165 = load ptr, ptr %12, align 8, !tbaa !10
  %166 = load i8, ptr %165, align 1, !tbaa !16
  %167 = icmp ne i8 %166, 0
  br i1 %167, label %168, label %200

168:                                              ; preds = %164
  %169 = load ptr, ptr %12, align 8, !tbaa !10
  %170 = load i8, ptr %169, align 1, !tbaa !16
  %171 = sext i8 %170 to i32
  %172 = and i32 %171, 255
  %173 = trunc i32 %172 to i8
  %174 = zext i8 %173 to i32
  %175 = icmp sge i32 %174, 128
  br i1 %175, label %176, label %196

176:                                              ; preds = %168
  %177 = load ptr, ptr %4, align 8, !tbaa !4
  %178 = load ptr, ptr @PyExc_SyntaxError, align 8, !tbaa !14
  %179 = load ptr, ptr %5, align 8, !tbaa !4
  %180 = getelementptr inbounds nuw %struct.Token, ptr %179, i32 0, i32 3
  %181 = load i32, ptr %180, align 4, !tbaa !24
  %182 = sext i32 %181 to i64
  %183 = load ptr, ptr %5, align 8, !tbaa !4
  %184 = getelementptr inbounds nuw %struct.Token, ptr %183, i32 0, i32 4
  %185 = load i32, ptr %184, align 8, !tbaa !25
  %186 = sext i32 %185 to i64
  %187 = load ptr, ptr %5, align 8, !tbaa !4
  %188 = getelementptr inbounds nuw %struct.Token, ptr %187, i32 0, i32 5
  %189 = load i32, ptr %188, align 4, !tbaa !26
  %190 = sext i32 %189 to i64
  %191 = load ptr, ptr %5, align 8, !tbaa !4
  %192 = getelementptr inbounds nuw %struct.Token, ptr %191, i32 0, i32 6
  %193 = load i32, ptr %192, align 8, !tbaa !27
  %194 = sext i32 %193 to i64
  %195 = call ptr (ptr, ptr, i64, i64, i64, i64, ptr, ...) @RAISE_ERROR_KNOWN_LOCATION(ptr noundef %177, ptr noundef %178, i64 noundef %182, i64 noundef %186, i64 noundef %190, i64 noundef %194, ptr noundef @.str.2)
  store ptr null, ptr %3, align 8
  store i32 1, ptr %7, align 4
  br label %213

196:                                              ; preds = %168
  br label %197

197:                                              ; preds = %196
  %198 = load ptr, ptr %12, align 8, !tbaa !10
  %199 = getelementptr i8, ptr %198, i32 1
  store ptr %199, ptr %12, align 8, !tbaa !10
  br label %164, !llvm.loop !28

200:                                              ; preds = %164
  %201 = load i32, ptr %11, align 4, !tbaa !8
  %202 = icmp ne i32 %201, 0
  br i1 %202, label %203, label %207

203:                                              ; preds = %200
  %204 = load ptr, ptr %6, align 8, !tbaa !10
  %205 = load i64, ptr %8, align 8, !tbaa !12
  %206 = call ptr @PyBytes_FromStringAndSize(ptr noundef %204, i64 noundef %205)
  store ptr %206, ptr %3, align 8
  store i32 1, ptr %7, align 4
  br label %213

207:                                              ; preds = %200
  %208 = load ptr, ptr %4, align 8, !tbaa !4
  %209 = load ptr, ptr %6, align 8, !tbaa !10
  %210 = load i64, ptr %8, align 8, !tbaa !12
  %211 = load ptr, ptr %5, align 8, !tbaa !4
  %212 = call ptr @decode_bytes_with_escapes(ptr noundef %208, ptr noundef %209, i64 noundef %210, ptr noundef %211)
  store ptr %212, ptr %3, align 8
  store i32 1, ptr %7, align 4
  br label %213

213:                                              ; preds = %207, %203, %176
  call void @llvm.lifetime.end.p0(i64 8, ptr %12) #8
  br label %221

214:                                              ; preds = %157
  %215 = load ptr, ptr %4, align 8, !tbaa !4
  %216 = load i32, ptr %11, align 4, !tbaa !8
  %217 = load ptr, ptr %6, align 8, !tbaa !10
  %218 = load i64, ptr %8, align 8, !tbaa !12
  %219 = load ptr, ptr %5, align 8, !tbaa !4
  %220 = call ptr @_PyPegen_decode_string(ptr noundef %215, i32 noundef %216, ptr noundef %217, i64 noundef %218, ptr noundef %219)
  store ptr %220, ptr %3, align 8
  store i32 1, ptr %7, align 4
  br label %221

221:                                              ; preds = %214, %213, %148, %108, %97, %89
  call void @llvm.lifetime.end.p0(i64 4, ptr %11) #8
  call void @llvm.lifetime.end.p0(i64 4, ptr %10) #8
  call void @llvm.lifetime.end.p0(i64 4, ptr %9) #8
  call void @llvm.lifetime.end.p0(i64 8, ptr %8) #8
  br label %222

222:                                              ; preds = %221, %19
  call void @llvm.lifetime.end.p0(i64 8, ptr %6) #8
  %223 = load ptr, ptr %3, align 8
  ret ptr %223
}