; Function Attrs: nounwind uwtable
define hidden ptr @_PyPegen_parse_string(ptr noundef %0, ptr noundef %1) local_unnamed_addr #0 {
  %3 = getelementptr inbounds nuw i8, ptr %1, i64 8
  %4 = load ptr, ptr %3, align 8, !tbaa !22
  %5 = tail call ptr @PyBytes_AsString(ptr noundef %4) #8
  %6 = icmp eq ptr %5, null
  br i1 %6, label %88, label %7

7:                                                ; preds = %2
  %8 = load i8, ptr %5, align 1, !tbaa !4
  %9 = zext i8 %8 to i32
  %10 = zext i8 %8 to i64
  %11 = getelementptr [256 x i32], ptr @_Py_ctype_table, i64 0, i64 %10
  %12 = load i32, ptr %11, align 4, !tbaa !19
  %13 = and i32 %12, 3
  %.not = icmp eq i32 %13, 0
  br i1 %.not, label %.loopexit, label %.preheader95

.preheader95:                                     ; preds = %7, %15
  %.199 = phi i32 [ %.2, %15 ], [ 0, %7 ]
  %.16998 = phi i32 [ %.270, %15 ], [ 0, %7 ]
  %.17297 = phi i32 [ %.273, %15 ], [ %9, %7 ]
  %.17696 = phi ptr [ %.277, %15 ], [ %5, %7 ]
  %14 = trunc nuw i32 %.17297 to i8
  %trunc = and i8 %14, -33
  switch i8 %trunc, label %.loopexit.loopexit [
    i8 66, label %15
    i8 85, label %.fold.split
    i8 82, label %.fold.split94
  ]

.fold.split:                                      ; preds = %.preheader95
  br label %15

.fold.split94:                                    ; preds = %.preheader95
  br label %15

15:                                               ; preds = %.preheader95, %.fold.split94, %.fold.split
  %.270 = phi i32 [ 1, %.preheader95 ], [ %.16998, %.fold.split ], [ %.16998, %.fold.split94 ]
  %.2 = phi i32 [ %.199, %.preheader95 ], [ %.199, %.fold.split ], [ 1, %.fold.split94 ]
  %.277 = getelementptr i8, ptr %.17696, i64 1
  %.273.in = load i8, ptr %.277, align 1, !tbaa !4
  %.273 = zext i8 %.273.in to i32
  %.not86 = icmp eq i32 %.270, 0
  %.not87 = icmp eq i32 %.2, 0
  %16 = select i1 %.not86, i1 true, i1 %.not87
  br i1 %16, label %.preheader95, label %.loopexit.loopexit, !llvm.loop !26

.loopexit.loopexit:                               ; preds = %15, %.preheader95
  %.075.ph = phi ptr [ %.17696, %.preheader95 ], [ %.277, %15 ]
  %.071.ph = phi i32 [ %.17297, %.preheader95 ], [ %.273, %15 ]
  %.068.ph = phi i32 [ %.16998, %.preheader95 ], [ %.270, %15 ]
  %.067.ph = phi i32 [ %.199, %.preheader95 ], [ %.2, %15 ]
  %17 = icmp eq i32 %.067.ph, 0
  %18 = icmp eq i32 %.068.ph, 0
  br label %.loopexit

.loopexit:                                        ; preds = %.loopexit.loopexit, %7
  %.075 = phi ptr [ %5, %7 ], [ %.075.ph, %.loopexit.loopexit ]
  %.071 = phi i32 [ %9, %7 ], [ %.071.ph, %.loopexit.loopexit ]
  %.068 = phi i1 [ true, %7 ], [ %18, %.loopexit.loopexit ]
  %.067 = phi i1 [ true, %7 ], [ %17, %.loopexit.loopexit ]
  switch i32 %.071, label %19 [
    i32 39, label %20
    i32 34, label %20
  ]

19:                                               ; preds = %.loopexit
  tail call void @_PyErr_BadInternalCall(ptr noundef nonnull @.str, i32 noundef 241) #8
  br label %88

20:                                               ; preds = %.loopexit, %.loopexit
  %21 = getelementptr i8, ptr %.075, i64 1
  %22 = tail call i64 @strlen(ptr noundef nonnull dereferenceable(1) %21) #9
  %23 = icmp ugt i64 %22, 2147483647
  br i1 %23, label %24, label %26

24:                                               ; preds = %20
  %25 = load ptr, ptr @PyExc_OverflowError, align 8, !tbaa !27
  tail call void @PyErr_SetString(ptr noundef %25, ptr noundef nonnull @.str.1) #8
  br label %88

26:                                               ; preds = %20
  %27 = add nsw i64 %22, -1
  %28 = getelementptr i8, ptr %.075, i64 %22
  %29 = load i8, ptr %28, align 1, !tbaa !4
  %30 = sext i8 %29 to i32
  %.not88 = icmp eq i32 %.071, %30
  br i1 %.not88, label %32, label %31

31:                                               ; preds = %26
  tail call void @_PyErr_BadInternalCall(ptr noundef nonnull @.str, i32 noundef 258) #8
  br label %88

32:                                               ; preds = %26
  %33 = icmp ugt i64 %27, 3
  br i1 %33, label %34, label %55

34:                                               ; preds = %32
  %35 = load i8, ptr %21, align 1, !tbaa !4
  %36 = sext i8 %35 to i32
  %37 = icmp eq i32 %.071, %36
  br i1 %37, label %38, label %55

38:                                               ; preds = %34
  %39 = getelementptr i8, ptr %.075, i64 2
  %40 = load i8, ptr %39, align 1, !tbaa !4
  %41 = sext i8 %40 to i32
  %42 = icmp eq i32 %.071, %41
  br i1 %42, label %43, label %55

43:                                               ; preds = %38
  %44 = getelementptr i8, ptr %.075, i64 3
  %45 = getelementptr i8, ptr %44, i64 %22
  %46 = getelementptr i8, ptr %45, i64 -4
  %47 = load i8, ptr %46, align 1, !tbaa !4
  %48 = sext i8 %47 to i32
  %.not89 = icmp eq i32 %.071, %48
  br i1 %.not89, label %49, label %54

49:                                               ; preds = %43
  %50 = add nsw i64 %22, -5
  %51 = getelementptr i8, ptr %44, i64 %50
  %52 = load i8, ptr %51, align 1, !tbaa !4
  %53 = sext i8 %52 to i32
  %.not90 = icmp eq i32 %.071, %53
  br i1 %.not90, label %55, label %54

54:                                               ; preds = %49, %43
  tail call void @_PyErr_BadInternalCall(ptr noundef nonnull @.str, i32 noundef 269) #8
  br label %88

55:                                               ; preds = %49, %38, %34, %32
  %.3 = phi ptr [ %44, %49 ], [ %21, %38 ], [ %21, %34 ], [ %21, %32 ]
  %.074 = phi i64 [ %50, %49 ], [ %27, %38 ], [ %27, %34 ], [ %27, %32 ]
  br i1 %.067, label %56, label %59

56:                                               ; preds = %55
  %57 = tail call ptr @strchr(ptr noundef nonnull dereferenceable(1) %.3, i32 noundef 92) #9
  %58 = icmp eq ptr %57, null
  br label %59

59:                                               ; preds = %56, %55
  %60 = phi i1 [ true, %55 ], [ %58, %56 ]
  br i1 %.068, label %85, label %.preheader

.preheader:                                       ; preds = %59
  %61 = load i8, ptr %.3, align 1, !tbaa !4
  %.not93100 = icmp eq i8 %61, 0
  br i1 %.not93100, label %._crit_edge, label %.lr.ph

62:                                               ; preds = %.lr.ph
  %63 = getelementptr i8, ptr %.0101, i64 1
  %64 = load i8, ptr %63, align 1, !tbaa !4
  %.not93 = icmp eq i8 %64, 0
  br i1 %.not93, label %._crit_edge, label %.lr.ph, !llvm.loop !28

.lr.ph:                                           ; preds = %.preheader, %62
  %65 = phi i8 [ %64, %62 ], [ %61, %.preheader ]
  %.0101 = phi ptr [ %63, %62 ], [ %.3, %.preheader ]
  %66 = icmp slt i8 %65, 0
  br i1 %66, label %67, label %62

67:                                               ; preds = %.lr.ph
  %68 = load ptr, ptr @PyExc_SyntaxError, align 8, !tbaa !27
  %69 = getelementptr inbounds nuw i8, ptr %1, i64 20
  %70 = load i32, ptr %69, align 4, !tbaa !29
  %71 = sext i32 %70 to i64
  %72 = getelementptr inbounds nuw i8, ptr %1, i64 24
  %73 = load i32, ptr %72, align 8, !tbaa !30
  %74 = sext i32 %73 to i64
  %75 = getelementptr inbounds nuw i8, ptr %1, i64 28
  %76 = load i32, ptr %75, align 4, !tbaa !31
  %77 = sext i32 %76 to i64
  %78 = getelementptr inbounds nuw i8, ptr %1, i64 32
  %79 = load i32, ptr %78, align 8, !tbaa !32
  %80 = sext i32 %79 to i64
  tail call void (ptr, ptr, i64, i64, i64, i64, ptr, ...) @RAISE_ERROR_KNOWN_LOCATION(ptr noundef %0, ptr noundef %68, i64 noundef %71, i64 noundef %74, i64 noundef %77, i64 noundef %80, ptr nonnull poison)
  br label %88

._crit_edge:                                      ; preds = %62, %.preheader
  br i1 %60, label %81, label %83

81:                                               ; preds = %._crit_edge
  %82 = tail call ptr @PyBytes_FromStringAndSize(ptr noundef nonnull %.3, i64 noundef %.074) #8
  br label %88

83:                                               ; preds = %._crit_edge
  %84 = tail call fastcc ptr @decode_bytes_with_escapes(ptr noundef %0, ptr noundef nonnull %.3, i64 noundef %.074, ptr noundef %1)
  br label %88

85:                                               ; preds = %59
  %86 = zext i1 %60 to i32
  %87 = tail call ptr @_PyPegen_decode_string(ptr noundef %0, i32 noundef %86, ptr noundef %.3, i64 noundef %.074, ptr noundef %1)
  br label %88

88:                                               ; preds = %19, %24, %31, %54, %85, %83, %81, %67, %2
  %.078 = phi ptr [ null, %2 ], [ null, %19 ], [ null, %24 ], [ null, %31 ], [ null, %54 ], [ %87, %85 ], [ null, %67 ], [ %82, %81 ], [ %84, %83 ]
  ret ptr %.078
}